; Function Attrs: mustprogress nofree norecurse nosync nounwind willreturn memory(argmem: readwrite) uwtable
define noundef ptr @_ZNK32pxrInternal_v0_24__pxrReserved__10GfMatrix3f3GetEPA3_f(ptr nocapture noundef nonnull readonly align 4 dereferenceable(36) %0, ptr noundef returned writeonly %1) local_unnamed_addr #2 align 2 {
  %3 = load float, ptr %0, align 4
  store float %3, ptr %1, align 4
  %4 = getelementptr inbounds i8, ptr %0, i64 4
  %5 = load float, ptr %4, align 4
  %6 = getelementptr inbounds i8, ptr %1, i64 4
  store float %5, ptr %6, align 4
  %7 = getelementptr inbounds i8, ptr %0, i64 8
  %8 = load float, ptr %7, align 4
  %9 = getelementptr inbounds i8, ptr %1, i64 8
  store float %8, ptr %9, align 4
  %10 = getelementptr inbounds i8, ptr %0, i64 12
  %11 = load float, ptr %10, align 4
  %12 = getelementptr inbounds i8, ptr %1, i64 12
  store float %11, ptr %12, align 4
  %13 = getelementptr inbounds i8, ptr %0, i64 16
  %14 = load float, ptr %13, align 4
  %15 = getelementptr inbounds i8, ptr %1, i64 16
  store float %14, ptr %15, align 4
  %16 = getelementptr inbounds i8, ptr %0, i64 20
  %17 = load float, ptr %16, align 4
  %18 = getelementptr inbounds i8, ptr %1, i64 20
  store float %17, ptr %18, align 4
  %19 = getelementptr inbounds i8, ptr %0, i64 24
  %20 = load float, ptr %19, align 4
  %21 = getelementptr inbounds i8, ptr %1, i64 24
  store float %20, ptr %21, align 4
  %22 = getelementptr inbounds i8, ptr %0, i64 28
  %23 = load float, ptr %22, align 4
  %24 = getelementptr inbounds i8, ptr %1, i64 28
  store float %23, ptr %24, align 4
  %25 = getelementptr inbounds i8, ptr %0, i64 32
  %26 = load float, ptr %25, align 4
  %27 = getelementptr inbounds i8, ptr %1, i64 32
  store float %26, ptr %27, align 4
  ret ptr %1
}